; ModuleID = '32/2288.c'
source_filename = "32/2288.c"
target datalayout = "e-m:e-p270:32:32-p271:32:32-p272:64:64-i64:64-f80:128-n8:16:32:64-S128"
target triple = "x86_64-pc-linux-gnu"

@.str = private unnamed_addr constant [3 x i8] c"%d\00", align 1
@.str.1 = private unnamed_addr constant [6 x i8] c"%s %s\00", align 1
@.str.2 = private unnamed_addr constant [4 x i8] c"%s\0A\00", align 1

; Function Attrs: noinline nounwind uwtable
define dso_local i32 @main() #0 {
  %1 = alloca i32, align 4
  %2 = alloca i32, align 4
  %3 = alloca i32, align 4
  %4 = alloca i32, align 4
  %5 = alloca i32, align 4
  %6 = alloca i32, align 4
  %7 = alloca [101 x i8], align 16
  %8 = alloca [101 x i8], align 16
  %9 = alloca [101 x i8], align 16
  store i32 0, i32* %1, align 4
  %10 = bitcast [101 x i8]* %7 to i8*
  call void @llvm.memset.p0i8.i64(i8* align 16 %10, i8 0, i64 101, i1 false)
  %11 = bitcast [101 x i8]* %8 to i8*
  call void @llvm.memset.p0i8.i64(i8* align 16 %11, i8 0, i64 101, i1 false)
  %12 = bitcast [101 x i8]* %9 to i8*
  call void @llvm.memset.p0i8.i64(i8* align 16 %12, i8 0, i64 101, i1 false)
  %13 = call i32 (i8*, ...) @__isoc99_scanf(i8* getelementptr inbounds ([3 x i8], [3 x i8]* @.str, i64 0, i64 0), i32* %2)
  store i32 1, i32* %5, align 4
  br label %14

14:                                               ; preds = %181, %0
  %15 = load i32, i32* %5, align 4
  %16 = load i32, i32* %2, align 4
  %17 = icmp sle i32 %15, %16
  br i1 %17, label %18, label %184

18:                                               ; preds = %14
  %19 = getelementptr inbounds [101 x i8], [101 x i8]* %7, i64 0, i64 0
  %20 = getelementptr inbounds [101 x i8], [101 x i8]* %8, i64 0, i64 0
  %21 = call i32 (i8*, ...) @__isoc99_scanf(i8* getelementptr inbounds ([6 x i8], [6 x i8]* @.str.1, i64 0, i64 0), i8* %19, i8* %20)
  %22 = getelementptr inbounds [101 x i8], [101 x i8]* %7, i64 0, i64 0
  %23 = call i64 @strlen(i8* %22) #4
  %24 = trunc i64 %23 to i32
  store i32 %24, i32* %3, align 4
  %25 = getelementptr inbounds [101 x i8], [101 x i8]* %8, i64 0, i64 0
  %26 = call i64 @strlen(i8* %25) #4
  %27 = trunc i64 %26 to i32
  store i32 %27, i32* %4, align 4
  %28 = load i32, i32* %4, align 4
  %29 = sub nsw i32 %28, 1
  store i32 %29, i32* %6, align 4
  br label %30

30:                                               ; preds = %111, %18
  %31 = load i32, i32* %6, align 4
  %32 = icmp sge i32 %31, 0
  br i1 %32, label %33, label %114

33:                                               ; preds = %30
  %34 = load i32, i32* %3, align 4
  %35 = load i32, i32* %4, align 4
  %36 = sub nsw i32 %34, %35
  %37 = load i32, i32* %6, align 4
  %38 = add nsw i32 %36, %37
  %39 = sext i32 %38 to i64
  %40 = getelementptr inbounds [101 x i8], [101 x i8]* %7, i64 0, i64 %39
  %41 = load i8, i8* %40, align 1
  %42 = sext i8 %41 to i32
  %43 = load i32, i32* %6, align 4
  %44 = sext i32 %43 to i64
  %45 = getelementptr inbounds [101 x i8], [101 x i8]* %8, i64 0, i64 %44
  %46 = load i8, i8* %45, align 1
  %47 = sext i8 %46 to i32
  %48 = icmp sge i32 %42, %47
  br i1 %48, label %49, label %74

49:                                               ; preds = %33
  %50 = load i32, i32* %3, align 4
  %51 = load i32, i32* %4, align 4
  %52 = sub nsw i32 %50, %51
  %53 = load i32, i32* %6, align 4
  %54 = add nsw i32 %52, %53
  %55 = sext i32 %54 to i64
  %56 = getelementptr inbounds [101 x i8], [101 x i8]* %7, i64 0, i64 %55
  %57 = load i8, i8* %56, align 1
  %58 = sext i8 %57 to i32
  %59 = load i32, i32* %6, align 4
  %60 = sext i32 %59 to i64
  %61 = getelementptr inbounds [101 x i8], [101 x i8]* %8, i64 0, i64 %60
  %62 = load i8, i8* %61, align 1
  %63 = sext i8 %62 to i32
  %64 = sub nsw i32 %58, %63
  %65 = add nsw i32 %64, 48
  %66 = trunc i32 %65 to i8
  %67 = load i32, i32* %3, align 4
  %68 = load i32, i32* %4, align 4
  %69 = sub nsw i32 %67, %68
  %70 = load i32, i32* %6, align 4
  %71 = add nsw i32 %69, %70
  %72 = sext i32 %71 to i64
  %73 = getelementptr inbounds [101 x i8], [101 x i8]* %9, i64 0, i64 %72
  store i8 %66, i8* %73, align 1
  br label %110

74:                                               ; preds = %33
  %75 = load i32, i32* %3, align 4
  %76 = load i32, i32* %4, align 4
  %77 = sub nsw i32 %75, %76
  %78 = load i32, i32* %6, align 4
  %79 = add nsw i32 %77, %78
  %80 = sext i32 %79 to i64
  %81 = getelementptr inbounds [101 x i8], [101 x i8]* %7, i64 0, i64 %80
  %82 = load i8, i8* %81, align 1
  %83 = sext i8 %82 to i32
  %84 = add nsw i32 %83, 10
  %85 = load i32, i32* %6, align 4
  %86 = sext i32 %85 to i64
  %87 = getelementptr inbounds [101 x i8], [101 x i8]* %8, i64 0, i64 %86
  %88 = load i8, i8* %87, align 1
  %89 = sext i8 %88 to i32
  %90 = sub nsw i32 %84, %89
  %91 = add nsw i32 %90, 48
  %92 = trunc i32 %91 to i8
  %93 = load i32, i32* %3, align 4
  %94 = load i32, i32* %4, align 4
  %95 = sub nsw i32 %93, %94
  %96 = load i32, i32* %6, align 4
  %97 = add nsw i32 %95, %96
  %98 = sext i32 %97 to i64
  %99 = getelementptr inbounds [101 x i8], [101 x i8]* %9, i64 0, i64 %98
  store i8 %92, i8* %99, align 1
  %100 = load i32, i32* %3, align 4
  %101 = load i32, i32* %4, align 4
  %102 = sub nsw i32 %100, %101
  %103 = load i32, i32* %6, align 4
  %104 = add nsw i32 %102, %103
  %105 = sub nsw i32 %104, 1
  %106 = sext i32 %105 to i64
  %107 = getelementptr inbounds [101 x i8], [101 x i8]* %7, i64 0, i64 %106
  %108 = load i8, i8* %107, align 1
  %109 = add i8 %108, -1
  store i8 %109, i8* %107, align 1
  br label %110

110:                                              ; preds = %74, %49
  br label %111

111:                                              ; preds = %110
  %112 = load i32, i32* %6, align 4
  %113 = add nsw i32 %112, -1
  store i32 %113, i32* %6, align 4
  br label %30

114:                                              ; preds = %30
  %115 = load i32, i32* %3, align 4
  %116 = load i32, i32* %4, align 4
  %117 = sub nsw i32 %115, %116
  %118 = sub nsw i32 %117, 1
  store i32 %118, i32* %6, align 4
  br label %119

119:                                              ; preds = %155, %114
  %120 = load i32, i32* %6, align 4
  %121 = icmp sge i32 %120, 1
  br i1 %121, label %122, label %158

122:                                              ; preds = %119
  %123 = load i32, i32* %6, align 4
  %124 = sext i32 %123 to i64
  %125 = getelementptr inbounds [101 x i8], [101 x i8]* %7, i64 0, i64 %124
  %126 = load i8, i8* %125, align 1
  %127 = sext i8 %126 to i32
  %128 = icmp slt i32 %127, 48
  br i1 %128, label %129, label %146

129:                                              ; preds = %122
  %130 = load i32, i32* %6, align 4
  %131 = sext i32 %130 to i64
  %132 = getelementptr inbounds [101 x i8], [101 x i8]* %7, i64 0, i64 %131
  %133 = load i8, i8* %132, align 1
  %134 = sext i8 %133 to i32
  %135 = add nsw i32 %134, 9
  %136 = trunc i32 %135 to i8
  %137 = load i32, i32* %6, align 4
  %138 = sext i32 %137 to i64
  %139 = getelementptr inbounds [101 x i8], [101 x i8]* %9, i64 0, i64 %138
  store i8 %136, i8* %139, align 1
  %140 = load i32, i32* %6, align 4
  %141 = sub nsw i32 %140, 1
  %142 = sext i32 %141 to i64
  %143 = getelementptr inbounds [101 x i8], [101 x i8]* %7, i64 0, i64 %142
  %144 = load i8, i8* %143, align 1
  %145 = add i8 %144, -1
  store i8 %145, i8* %143, align 1
  br label %154

146:                                              ; preds = %122
  %147 = load i32, i32* %6, align 4
  %148 = sext i32 %147 to i64
  %149 = getelementptr inbounds [101 x i8], [101 x i8]* %7, i64 0, i64 %148
  %150 = load i8, i8* %149, align 1
  %151 = load i32, i32* %6, align 4
  %152 = sext i32 %151 to i64
  %153 = getelementptr inbounds [101 x i8], [101 x i8]* %9, i64 0, i64 %152
  store i8 %150, i8* %153, align 1
  br label %154

154:                                              ; preds = %146, %129
  br label %155

155:                                              ; preds = %154
  %156 = load i32, i32* %6, align 4
  %157 = add nsw i32 %156, -1
  store i32 %157, i32* %6, align 4
  br label %119

158:                                              ; preds = %119
  %159 = getelementptr inbounds [101 x i8], [101 x i8]* %7, i64 0, i64 0
  %160 = load i8, i8* %159, align 16
  %161 = getelementptr inbounds [101 x i8], [101 x i8]* %9, i64 0, i64 0
  store i8 %160, i8* %161, align 16
  %162 = getelementptr inbounds [101 x i8], [101 x i8]* %9, i64 0, i64 0
  %163 = call i32 (i8*, ...) @printf(i8* getelementptr inbounds ([4 x i8], [4 x i8]* @.str.2, i64 0, i64 0), i8* %162)
  store i32 0, i32* %6, align 4
  br label %164

164:                                              ; preds = %177, %158
  %165 = load i32, i32* %6, align 4
  %166 = icmp slt i32 %165, 101
  br i1 %166, label %167, label %180

167:                                              ; preds = %164
  %168 = load i32, i32* %6, align 4
  %169 = sext i32 %168 to i64
  %170 = getelementptr inbounds [101 x i8], [101 x i8]* %7, i64 0, i64 %169
  store i8 0, i8* %170, align 1
  %171 = load i32, i32* %6, align 4
  %172 = sext i32 %171 to i64
  %173 = getelementptr inbounds [101 x i8], [101 x i8]* %8, i64 0, i64 %172
  store i8 0, i8* %173, align 1
  %174 = load i32, i32* %6, align 4
  %175 = sext i32 %174 to i64
  %176 = getelementptr inbounds [101 x i8], [101 x i8]* %9, i64 0, i64 %175
  store i8 0, i8* %176, align 1
  br label %177

177:                                              ; preds = %167
  %178 = load i32, i32* %6, align 4
  %179 = add nsw i32 %178, 1
  store i32 %179, i32* %6, align 4
  br label %164

180:                                              ; preds = %164
  br label %181

181:                                              ; preds = %180
  %182 = load i32, i32* %5, align 4
  %183 = add nsw i32 %182, 1
  store i32 %183, i32* %5, align 4
  br label %14

184:                                              ; preds = %14
  ret i32 0
}

; Function Attrs: argmemonly nounwind willreturn
declare void @llvm.memset.p0i8.i64(i8* nocapture writeonly, i8, i64, i1 immarg) #1

declare dso_local i32 @__isoc99_scanf(i8*, ...) #2

; Function Attrs: nounwind readonly
declare dso_local i64 @strlen(i8*) #3

declare dso_local i32 @printf(i8*, ...) #2


!llvm.module.flags = !{!0}
!llvm.ident = !{!1}

!0 = !{i32 1, !"wchar_size", i32 4}
!1 = !{!"clang version 10.0.0-4ubuntu1 "}
